; Function Attrs: nounwind uwtable
define range(i32 0, 2) i32 @Gia_ManIsSeqWithBoxes(ptr noundef readonly captures(none) %0) local_unnamed_addr #0 {
  %2 = getelementptr i8, ptr %0, i64 16
  %.val = load i32, ptr %2, align 8, !tbaa !38
  %3 = icmp sgt i32 %.val, 0
  br i1 %3, label %4, label %Gia_ManBoxNum.exit

4:                                                ; preds = %1
  %5 = getelementptr inbounds nuw i8, ptr %0, i64 736
  %6 = load ptr, ptr %5, align 8, !tbaa !3
  %.not.i = icmp eq ptr %6, null
  br i1 %.not.i, label %Gia_ManBoxNum.exit, label %7

7:                                                ; preds = %4
  %8 = tail call i32 @Tim_ManBoxNum(ptr noundef nonnull %6) #20
  %9 = icmp sgt i32 %8, 0
  %10 = zext i1 %9 to i32
  br label %Gia_ManBoxNum.exit

Gia_ManBoxNum.exit:                               ; preds = %7, %4, %1
  %11 = phi i32 [ 0, %1 ], [ %10, %7 ], [ 0, %4 ]
  ret i32 %11
}